target datalayout = "e-m:e-p270:32:32-p271:32:32-p272:64:64-i64:64-i128:128-f80:128-n8:16:32:64-S128"
target triple = "x86_64-pc-linux-gnu"

%struct.Vector3 = type { float, float, float }

; Function Attrs: nounwind uwtable
define { <2 x float>, float } @Vector3Reflect(<2 x float> %0, float %1, <2 x float> %2, float %3) #9 {
  %5 = alloca %struct.Vector3, align 4
  %6 = alloca %struct.Vector3, align 4
  %7 = alloca { <2 x float>, float }, align 4
  %8 = alloca %struct.Vector3, align 4
  %9 = alloca { <2 x float>, float }, align 4
  %10 = alloca float, align 4
  %11 = alloca { <2 x float>, float }, align 8
  %12 = getelementptr inbounds nuw { <2 x float>, float }, ptr %7, i32 0, i32 0
  store <2 x float> %0, ptr %12, align 4
  %13 = getelementptr inbounds nuw { <2 x float>, float }, ptr %7, i32 0, i32 1
  store float %1, ptr %13, align 4
  call void @llvm.memcpy.p0.p0.i64(ptr align 4 %6, ptr align 4 %7, i64 12, i1 false)
  %14 = getelementptr inbounds nuw { <2 x float>, float }, ptr %9, i32 0, i32 0
  store <2 x float> %2, ptr %14, align 4
  %15 = getelementptr inbounds nuw { <2 x float>, float }, ptr %9, i32 0, i32 1
  store float %3, ptr %15, align 4
  call void @llvm.memcpy.p0.p0.i64(ptr align 4 %8, ptr align 4 %9, i64 12, i1 false)
  call void @llvm.memset.p0.i64(ptr align 4 %5, i8 0, i64 12, i1 false)
  call void @llvm.lifetime.start.p0(i64 4, ptr %10) #16
  %16 = getelementptr inbounds nuw %struct.Vector3, ptr %6, i32 0, i32 0
  %17 = load float, ptr %16, align 4
  %18 = getelementptr inbounds nuw %struct.Vector3, ptr %8, i32 0, i32 0
  %19 = load float, ptr %18, align 4
  %20 = getelementptr inbounds nuw %struct.Vector3, ptr %6, i32 0, i32 1
  %21 = load float, ptr %20, align 4
  %22 = getelementptr inbounds nuw %struct.Vector3, ptr %8, i32 0, i32 1
  %23 = load float, ptr %22, align 4
  %24 = fmul float %21, %23
  %25 = call float @llvm.fmuladd.f32(float %17, float %19, float %24)
  %26 = getelementptr inbounds nuw %struct.Vector3, ptr %6, i32 0, i32 2
  %27 = load float, ptr %26, align 4
  %28 = getelementptr inbounds nuw %struct.Vector3, ptr %8, i32 0, i32 2
  %29 = load float, ptr %28, align 4
  %30 = call float @llvm.fmuladd.f32(float %27, float %29, float %25)
  store float %30, ptr %10, align 4
  %31 = getelementptr inbounds nuw %struct.Vector3, ptr %6, i32 0, i32 0
  %32 = load float, ptr %31, align 4
  %33 = getelementptr inbounds nuw %struct.Vector3, ptr %8, i32 0, i32 0
  %34 = load float, ptr %33, align 4
  %35 = fmul float 2.000000e+00, %34
  %36 = load float, ptr %10, align 4
  %37 = fneg float %35
  %38 = call float @llvm.fmuladd.f32(float %37, float %36, float %32)
  %39 = getelementptr inbounds nuw %struct.Vector3, ptr %5, i32 0, i32 0
  store float %38, ptr %39, align 4
  %40 = getelementptr inbounds nuw %struct.Vector3, ptr %6, i32 0, i32 1
  %41 = load float, ptr %40, align 4
  %42 = getelementptr inbounds nuw %struct.Vector3, ptr %8, i32 0, i32 1
  %43 = load float, ptr %42, align 4
  %44 = fmul float 2.000000e+00, %43
  %45 = load float, ptr %10, align 4
  %46 = fneg float %44
  %47 = call float @llvm.fmuladd.f32(float %46, float %45, float %41)
  %48 = getelementptr inbounds nuw %struct.Vector3, ptr %5, i32 0, i32 1
  store float %47, ptr %48, align 4
  %49 = getelementptr inbounds nuw %struct.Vector3, ptr %6, i32 0, i32 2
  %50 = load float, ptr %49, align 4
  %51 = getelementptr inbounds nuw %struct.Vector3, ptr %8, i32 0, i32 2
  %52 = load float, ptr %51, align 4
  %53 = fmul float 2.000000e+00, %52
  %54 = load float, ptr %10, align 4
  %55 = fneg float %53
  %56 = call float @llvm.fmuladd.f32(float %55, float %54, float %50)
  %57 = getelementptr inbounds nuw %struct.Vector3, ptr %5, i32 0, i32 2
  store float %56, ptr %57, align 4
  call void @llvm.lifetime.end.p0(i64 4, ptr %10) #16
  call void @llvm.memcpy.p0.p0.i64(ptr align 8 %11, ptr align 4 %5, i64 12, i1 false)
  %58 = load { <2 x float>, float }, ptr %11, align 8
  ret { <2 x float>, float } %58
}