; Function Attrs: mustprogress nofree norecurse nosync nounwind willreturn memory(none) uwtable
define { <2 x float>, float } @Vector3Reflect(<2 x float> %0, float %1, <2 x float> %2, float %3) local_unnamed_addr #17 {
  %.sroa.013.0.vec.extract = extractelement <2 x float> %0, i64 0
  %.sroa.05.0.vec.extract = extractelement <2 x float> %2, i64 0
  %.sroa.013.4.vec.extract = extractelement <2 x float> %0, i64 1
  %.sroa.05.4.vec.extract = extractelement <2 x float> %2, i64 1
  %5 = fmul float %.sroa.013.4.vec.extract, %.sroa.05.4.vec.extract
  %6 = tail call float @llvm.fmuladd.f32(float %.sroa.013.0.vec.extract, float %.sroa.05.0.vec.extract, float %5)
  %7 = tail call float @llvm.fmuladd.f32(float %1, float %3, float %6)
  %8 = fmul float %.sroa.05.0.vec.extract, -2.000000e+00
  %9 = tail call float @llvm.fmuladd.f32(float %8, float %7, float %.sroa.013.0.vec.extract)
  %.sroa.020.0.vec.insert = insertelement <2 x float> poison, float %9, i64 0
  %10 = fmul float %.sroa.05.4.vec.extract, -2.000000e+00
  %11 = tail call float @llvm.fmuladd.f32(float %10, float %7, float %.sroa.013.4.vec.extract)
  %.sroa.020.4.vec.insert = insertelement <2 x float> %.sroa.020.0.vec.insert, float %11, i64 1
  %12 = fmul float %3, -2.000000e+00
  %13 = tail call float @llvm.fmuladd.f32(float %12, float %7, float %1)
  %.fca.0.insert = insertvalue { <2 x float>, float } poison, <2 x float> %.sroa.020.4.vec.insert, 0
  %.fca.1.insert = insertvalue { <2 x float>, float } %.fca.0.insert, float %13, 1
  ret { <2 x float>, float } %.fca.1.insert
}